target datalayout = "e-m:e-p270:32:32-p271:32:32-p272:64:64-i64:64-i128:128-f80:128-n8:16:32:64-S128"
target triple = "x86_64-pc-linux-gnu"

%struct.git_hash_algo = type { ptr, i32, i64, i64, i64, ptr, ptr, ptr, ptr, ptr, ptr, ptr, ptr, ptr }
%struct.cache_time = type { i32, i32 }
%struct.hashmap = type { ptr, ptr, ptr, i32, i32, i32, i32, i8 }
%struct.object_id = type { [32 x i8], i32 }
%struct.cache_entry = type { %struct.hashmap_entry, %struct.stat_data, i32, i32, i32, i32, i32, %struct.object_id, [0 x i8] }
%struct.hashmap_entry = type { ptr, i32 }
%struct.stat_data = type { %struct.cache_time, %struct.cache_time, i32, i32, i32, i32, i32 }
%struct.repository = type { ptr, ptr, ptr, ptr, ptr, %struct.strmap, %struct.strmap, %struct.repo_path_cache, ptr, ptr, ptr, ptr, %struct.repo_settings, ptr, ptr, ptr, ptr, ptr, ptr, i32, i32, i32, ptr, ptr, i32, i32, i8 }
%struct.strmap = type { %struct.hashmap, ptr, i8 }
%struct.repo_path_cache = type { ptr, ptr, ptr, ptr, ptr, ptr, ptr }
%struct.repo_settings = type { i32, i32, i32, i32, i32, i32, i32, i32, i32, i32, i32, i32, ptr, i32, i32, i32, i32, i32, i32, i32, i64, i64, i64 }
%struct.ondisk_cache_entry = type { %struct.cache_time, %struct.cache_time, i32, i32, i32, i32, i32, i32, [36 x i8], [0 x i8] }

@the_repository = external global ptr, align 8

; Function Attrs: inlinehint nounwind uwtable
define internal i32 @default_swab32(i32 noundef %0) #3 {
  %2 = alloca i32, align 4
  store i32 %0, ptr %2, align 4, !tbaa !9
  %3 = load i32, ptr %2, align 4, !tbaa !9
  %4 = and i32 %3, -16777216
  %5 = lshr i32 %4, 24
  %6 = load i32, ptr %2, align 4, !tbaa !9
  %7 = and i32 %6, 16711680
  %8 = lshr i32 %7, 8
  %9 = or i32 %5, %8
  %10 = load i32, ptr %2, align 4, !tbaa !9
  %11 = and i32 %10, 65280
  %12 = shl i32 %11, 8
  %13 = or i32 %9, %12
  %14 = load i32, ptr %2, align 4, !tbaa !9
  %15 = and i32 %14, 255
  %16 = shl i32 %15, 24
  %17 = or i32 %13, %16
  ret i32 %17
}

; Function Attrs: inlinehint nounwind uwtable
define internal zeroext i16 @__bswap_16(i16 noundef zeroext %0) #3 {
  %2 = alloca i16, align 2
  store i16 %0, ptr %2, align 2, !tbaa !312
  %3 = load i16, ptr %2, align 2, !tbaa !312
  %4 = zext i16 %3 to i32
  %5 = ashr i32 %4, 8
  %6 = and i32 %5, 255
  %7 = load i16, ptr %2, align 2, !tbaa !312
  %8 = zext i16 %7 to i32
  %9 = and i32 %8, 255
  %10 = shl i32 %9, 8
  %11 = or i32 %6, %10
  %12 = trunc i32 %11 to i16
  ret i16 %12
}

; Function Attrs: inlinehint nounwind uwtable
define internal void @hashcpy(ptr noundef %0, ptr noundef %1, ptr noundef %2) #3 {
  %4 = alloca ptr, align 8
  %5 = alloca ptr, align 8
  %6 = alloca ptr, align 8
  store ptr %0, ptr %4, align 8, !tbaa !11
  store ptr %1, ptr %5, align 8, !tbaa !11
  store ptr %2, ptr %6, align 8, !tbaa !130
  %7 = load ptr, ptr %4, align 8, !tbaa !11
  %8 = load ptr, ptr %5, align 8, !tbaa !11
  %9 = load ptr, ptr %6, align 8, !tbaa !130
  %10 = getelementptr inbounds nuw %struct.git_hash_algo, ptr %9, i32 0, i32 2
  %11 = load i64, ptr %10, align 8, !tbaa !109
  call void @llvm.memcpy.p0.p0.i64(ptr align 1 %7, ptr align 1 %8, i64 %11, i1 false)
  ret void
}

; Function Attrs: inlinehint nounwind uwtable
define internal i32 @git_bswap32(i32 noundef %0) #3 {
  %2 = alloca i32, align 4
  %3 = alloca i32, align 4
  store i32 %0, ptr %2, align 4, !tbaa !9
  call void @llvm.lifetime.start.p0(i64 4, ptr %3) #12
  %4 = load i32, ptr %2, align 4, !tbaa !9
  %5 = call i1 @llvm.is.constant.i32(i32 %4)
  br i1 %5, label %6, label %9

6:                                                ; preds = %1
  %7 = load i32, ptr %2, align 4, !tbaa !9
  %8 = call i32 @default_swab32(i32 noundef %7)
  store i32 %8, ptr %3, align 4, !tbaa !9
  br label %12

9:                                                ; preds = %1
  %10 = load i32, ptr %2, align 4, !tbaa !9
  %11 = call i32 asm "bswap $0", "=r,0,~{dirflag},~{fpsr},~{flags}"(i32 %10) #16, !srcloc !131
  store i32 %11, ptr %3, align 4, !tbaa !9
  br label %12

12:                                               ; preds = %9, %6
  %13 = load i32, ptr %3, align 4, !tbaa !9
  call void @llvm.lifetime.end.p0(i64 4, ptr %3) #12
  ret i32 %13
}

; Function Attrs: nounwind uwtable
define internal void @copy_cache_entry_to_ondisk(ptr noundef %0, ptr noundef %1) #0 {
  %3 = alloca ptr, align 8
  %4 = alloca ptr, align 8
  %5 = alloca i16, align 2
  %6 = alloca i32, align 4
  %7 = alloca ptr, align 8
  store ptr %0, ptr %3, align 8, !tbaa !304
  store ptr %1, ptr %4, align 8, !tbaa !29
  call void @llvm.lifetime.start.p0(i64 2, ptr %5) #12
  call void @llvm.lifetime.start.p0(i64 4, ptr %6) #12
  %8 = load ptr, ptr @the_repository, align 8, !tbaa !48
  %9 = getelementptr inbounds nuw %struct.repository, ptr %8, i32 0, i32 17
  %10 = load ptr, ptr %9, align 8, !tbaa !49
  %11 = getelementptr inbounds nuw %struct.git_hash_algo, ptr %10, i32 0, i32 2
  %12 = load i64, ptr %11, align 8, !tbaa !109
  %13 = trunc i64 %12 to i32
  store i32 %13, ptr %6, align 4, !tbaa !9
  call void @llvm.lifetime.start.p0(i64 8, ptr %7) #12
  %14 = load ptr, ptr %3, align 8, !tbaa !304
  %15 = getelementptr inbounds nuw %struct.ondisk_cache_entry, ptr %14, i32 0, i32 8
  %16 = getelementptr inbounds [36 x i8], ptr %15, i64 0, i64 0
  %17 = load i32, ptr %6, align 4, !tbaa !9
  %18 = zext i32 %17 to i64
  %19 = getelementptr inbounds nuw i8, ptr %16, i64 %18
  store ptr %19, ptr %7, align 8, !tbaa !308
  %20 = load ptr, ptr %4, align 8, !tbaa !29
  %21 = getelementptr inbounds nuw %struct.cache_entry, ptr %20, i32 0, i32 1
  %22 = getelementptr inbounds nuw %struct.stat_data, ptr %21, i32 0, i32 0
  %23 = getelementptr inbounds nuw %struct.cache_time, ptr %22, i32 0, i32 0
  %24 = load i32, ptr %23, align 8, !tbaa !277
  %25 = call i32 @git_bswap32(i32 noundef %24)
  %26 = load ptr, ptr %3, align 8, !tbaa !304
  %27 = getelementptr inbounds nuw %struct.ondisk_cache_entry, ptr %26, i32 0, i32 0
  %28 = getelementptr inbounds nuw %struct.cache_time, ptr %27, i32 0, i32 0
  store i32 %25, ptr %28, align 4, !tbaa !310
  %29 = load ptr, ptr %4, align 8, !tbaa !29
  %30 = getelementptr inbounds nuw %struct.cache_entry, ptr %29, i32 0, i32 1
  %31 = getelementptr inbounds nuw %struct.stat_data, ptr %30, i32 0, i32 1
  %32 = getelementptr inbounds nuw %struct.cache_time, ptr %31, i32 0, i32 0
  %33 = load i32, ptr %32, align 8, !tbaa !45
  %34 = call i32 @git_bswap32(i32 noundef %33)
  %35 = load ptr, ptr %3, align 8, !tbaa !304
  %36 = getelementptr inbounds nuw %struct.ondisk_cache_entry, ptr %35, i32 0, i32 1
  %37 = getelementptr inbounds nuw %struct.cache_time, ptr %36, i32 0, i32 0
  store i32 %34, ptr %37, align 4, !tbaa !310
  %38 = load ptr, ptr %4, align 8, !tbaa !29
  %39 = getelementptr inbounds nuw %struct.cache_entry, ptr %38, i32 0, i32 1
  %40 = getelementptr inbounds nuw %struct.stat_data, ptr %39, i32 0, i32 0
  %41 = getelementptr inbounds nuw %struct.cache_time, ptr %40, i32 0, i32 1
  %42 = load i32, ptr %41, align 4, !tbaa !278
  %43 = call i32 @git_bswap32(i32 noundef %42)
  %44 = load ptr, ptr %3, align 8, !tbaa !304
  %45 = getelementptr inbounds nuw %struct.ondisk_cache_entry, ptr %44, i32 0, i32 0
  %46 = getelementptr inbounds nuw %struct.cache_time, ptr %45, i32 0, i32 1
  store i32 %43, ptr %46, align 4, !tbaa !311
  %47 = load ptr, ptr %4, align 8, !tbaa !29
  %48 = getelementptr inbounds nuw %struct.cache_entry, ptr %47, i32 0, i32 1
  %49 = getelementptr inbounds nuw %struct.stat_data, ptr %48, i32 0, i32 1
  %50 = getelementptr inbounds nuw %struct.cache_time, ptr %49, i32 0, i32 1
  %51 = load i32, ptr %50, align 4, !tbaa !279
  %52 = call i32 @git_bswap32(i32 noundef %51)
  %53 = load ptr, ptr %3, align 8, !tbaa !304
  %54 = getelementptr inbounds nuw %struct.ondisk_cache_entry, ptr %53, i32 0, i32 1
  %55 = getelementptr inbounds nuw %struct.cache_time, ptr %54, i32 0, i32 1
  store i32 %52, ptr %55, align 4, !tbaa !311
  %56 = load ptr, ptr %4, align 8, !tbaa !29
  %57 = getelementptr inbounds nuw %struct.cache_entry, ptr %56, i32 0, i32 1
  %58 = getelementptr inbounds nuw %struct.stat_data, ptr %57, i32 0, i32 2
  %59 = load i32, ptr %58, align 8, !tbaa !280
  %60 = call i32 @git_bswap32(i32 noundef %59)
  %61 = load ptr, ptr %3, align 8, !tbaa !304
  %62 = getelementptr inbounds nuw %struct.ondisk_cache_entry, ptr %61, i32 0, i32 2
  store i32 %60, ptr %62, align 4, !tbaa !9
  %63 = load ptr, ptr %4, align 8, !tbaa !29
  %64 = getelementptr inbounds nuw %struct.cache_entry, ptr %63, i32 0, i32 1
  %65 = getelementptr inbounds nuw %struct.stat_data, ptr %64, i32 0, i32 3
  %66 = load i32, ptr %65, align 4, !tbaa !281
  %67 = call i32 @git_bswap32(i32 noundef %66)
  %68 = load ptr, ptr %3, align 8, !tbaa !304
  %69 = getelementptr inbounds nuw %struct.ondisk_cache_entry, ptr %68, i32 0, i32 3
  store i32 %67, ptr %69, align 4, !tbaa !9
  %70 = load ptr, ptr %4, align 8, !tbaa !29
  %71 = getelementptr inbounds nuw %struct.cache_entry, ptr %70, i32 0, i32 2
  %72 = load i32, ptr %71, align 4, !tbaa !9
  %73 = call i32 @git_bswap32(i32 noundef %72)
  %74 = load ptr, ptr %3, align 8, !tbaa !304
  %75 = getelementptr inbounds nuw %struct.ondisk_cache_entry, ptr %74, i32 0, i32 4
  store i32 %73, ptr %75, align 4, !tbaa !9
  %76 = load ptr, ptr %4, align 8, !tbaa !29
  %77 = getelementptr inbounds nuw %struct.cache_entry, ptr %76, i32 0, i32 1
  %78 = getelementptr inbounds nuw %struct.stat_data, ptr %77, i32 0, i32 4
  %79 = load i32, ptr %78, align 8, !tbaa !282
  %80 = call i32 @git_bswap32(i32 noundef %79)
  %81 = load ptr, ptr %3, align 8, !tbaa !304
  %82 = getelementptr inbounds nuw %struct.ondisk_cache_entry, ptr %81, i32 0, i32 5
  store i32 %80, ptr %82, align 4, !tbaa !9
  %83 = load ptr, ptr %4, align 8, !tbaa !29
  %84 = getelementptr inbounds nuw %struct.cache_entry, ptr %83, i32 0, i32 1
  %85 = getelementptr inbounds nuw %struct.stat_data, ptr %84, i32 0, i32 5
  %86 = load i32, ptr %85, align 4, !tbaa !283
  %87 = call i32 @git_bswap32(i32 noundef %86)
  %88 = load ptr, ptr %3, align 8, !tbaa !304
  %89 = getelementptr inbounds nuw %struct.ondisk_cache_entry, ptr %88, i32 0, i32 6
  store i32 %87, ptr %89, align 4, !tbaa !9
  %90 = load ptr, ptr %4, align 8, !tbaa !29
  %91 = getelementptr inbounds nuw %struct.cache_entry, ptr %90, i32 0, i32 1
  %92 = getelementptr inbounds nuw %struct.stat_data, ptr %91, i32 0, i32 6
  %93 = load i32, ptr %92, align 8, !tbaa !47
  %94 = call i32 @git_bswap32(i32 noundef %93)
  %95 = load ptr, ptr %3, align 8, !tbaa !304
  %96 = getelementptr inbounds nuw %struct.ondisk_cache_entry, ptr %95, i32 0, i32 7
  store i32 %94, ptr %96, align 4, !tbaa !9
  %97 = load ptr, ptr %3, align 8, !tbaa !304
  %98 = getelementptr inbounds nuw %struct.ondisk_cache_entry, ptr %97, i32 0, i32 8
  %99 = getelementptr inbounds [36 x i8], ptr %98, i64 0, i64 0
  %100 = load ptr, ptr %4, align 8, !tbaa !29
  %101 = getelementptr inbounds nuw %struct.cache_entry, ptr %100, i32 0, i32 7
  %102 = getelementptr inbounds nuw %struct.object_id, ptr %101, i32 0, i32 0
  %103 = getelementptr inbounds [32 x i8], ptr %102, i64 0, i64 0
  %104 = load ptr, ptr @the_repository, align 8, !tbaa !48
  %105 = getelementptr inbounds nuw %struct.repository, ptr %104, i32 0, i32 17
  %106 = load ptr, ptr %105, align 8, !tbaa !49
  call void @hashcpy(ptr noundef %99, ptr noundef %103, ptr noundef %106)
  %107 = load ptr, ptr %4, align 8, !tbaa !29
  %108 = getelementptr inbounds nuw %struct.cache_entry, ptr %107, i32 0, i32 3
  %109 = load i32, ptr %108, align 8, !tbaa !9
  %110 = and i32 %109, -4096
  %111 = trunc i32 %110 to i16
  store i16 %111, ptr %5, align 2, !tbaa !312
  %112 = load ptr, ptr %4, align 8, !tbaa !29
  %113 = getelementptr inbounds nuw %struct.cache_entry, ptr %112, i32 0, i32 5
  %114 = load i32, ptr %113, align 8, !tbaa !9
  %115 = icmp uge i32 %114, 4095
  br i1 %115, label %116, label %117

116:                                              ; preds = %2
  br label %121

117:                                              ; preds = %2
  %118 = load ptr, ptr %4, align 8, !tbaa !29
  %119 = getelementptr inbounds nuw %struct.cache_entry, ptr %118, i32 0, i32 5
  %120 = load i32, ptr %119, align 8, !tbaa !9
  br label %121

121:                                              ; preds = %117, %116
  %122 = phi i32 [ 4095, %116 ], [ %120, %117 ]
  %123 = load i16, ptr %5, align 2, !tbaa !312
  %124 = sext i16 %123 to i32
  %125 = or i32 %124, %122
  %126 = trunc i32 %125 to i16
  store i16 %126, ptr %5, align 2, !tbaa !312
  %127 = load i16, ptr %5, align 2, !tbaa !312
  %128 = call zeroext i16 @__bswap_16(i16 noundef zeroext %127)
  %129 = load ptr, ptr %7, align 8, !tbaa !308
  %130 = getelementptr inbounds i16, ptr %129, i64 0
  store i16 %128, ptr %130, align 2, !tbaa !312
  %131 = load ptr, ptr %4, align 8, !tbaa !29
  %132 = getelementptr inbounds nuw %struct.cache_entry, ptr %131, i32 0, i32 3
  %133 = load i32, ptr %132, align 8, !tbaa !9
  %134 = and i32 %133, 16384
  %135 = icmp ne i32 %134, 0
  br i1 %135, label %136, label %146

136:                                              ; preds = %121
  %137 = load ptr, ptr %4, align 8, !tbaa !29
  %138 = getelementptr inbounds nuw %struct.cache_entry, ptr %137, i32 0, i32 3
  %139 = load i32, ptr %138, align 8, !tbaa !9
  %140 = and i32 %139, 1610612736
  %141 = lshr i32 %140, 16
  %142 = trunc i32 %141 to i16
  %143 = call zeroext i16 @__bswap_16(i16 noundef zeroext %142)
  %144 = load ptr, ptr %7, align 8, !tbaa !308
  %145 = getelementptr inbounds i16, ptr %144, i64 1
  store i16 %143, ptr %145, align 2, !tbaa !312
  br label %146

146:                                              ; preds = %136, %121
  call void @llvm.lifetime.end.p0(i64 8, ptr %7) #12
  call void @llvm.lifetime.end.p0(i64 4, ptr %6) #12
  call void @llvm.lifetime.end.p0(i64 2, ptr %5) #12
  ret void
}