; Function Attrs: nounwind memory(read, argmem: readwrite, inaccessiblemem: none) uwtable
define internal fastcc void @copy_cache_entry_to_ondisk(ptr noundef nonnull writeonly captures(none) initializes((0, 40)) %0, ptr noundef readonly captures(none) %1) unnamed_addr #24 {
git_bswap32.exit:
  %2 = load ptr, ptr @the_repository, align 8, !tbaa !52
  %3 = getelementptr inbounds nuw i8, ptr %2, i64 400
  %4 = load ptr, ptr %3, align 8, !tbaa !54
  %5 = getelementptr inbounds nuw i8, ptr %4, i64 16
  %6 = load i64, ptr %5, align 8, !tbaa !95
  %7 = getelementptr inbounds nuw i8, ptr %0, i64 40
  %8 = and i64 %6, 4294967295
  %9 = getelementptr inbounds nuw i8, ptr %7, i64 %8
  %10 = getelementptr inbounds nuw i8, ptr %1, i64 16
  %11 = load i32, ptr %10, align 8, !tbaa !234
  %12 = tail call i32 asm "bswap $0", "=r,0,~{dirflag},~{fpsr},~{flags}"(i32 %11) #33, !srcloc !99
  store i32 %12, ptr %0, align 4, !tbaa !257
  %13 = getelementptr inbounds nuw i8, ptr %1, i64 24
  %14 = load i32, ptr %13, align 8, !tbaa !50
  %15 = tail call i32 asm "bswap $0", "=r,0,~{dirflag},~{fpsr},~{flags}"(i32 %14) #33, !srcloc !99
  %16 = getelementptr inbounds nuw i8, ptr %0, i64 8
  store i32 %15, ptr %16, align 4, !tbaa !257
  %17 = getelementptr inbounds nuw i8, ptr %1, i64 20
  %18 = load i32, ptr %17, align 4, !tbaa !235
  %19 = tail call i32 asm "bswap $0", "=r,0,~{dirflag},~{fpsr},~{flags}"(i32 %18) #33, !srcloc !99
  %20 = getelementptr inbounds nuw i8, ptr %0, i64 4
  store i32 %19, ptr %20, align 4, !tbaa !258
  %21 = getelementptr inbounds nuw i8, ptr %1, i64 28
  %22 = load i32, ptr %21, align 4, !tbaa !236
  %23 = tail call i32 asm "bswap $0", "=r,0,~{dirflag},~{fpsr},~{flags}"(i32 %22) #33, !srcloc !99
  %24 = getelementptr inbounds nuw i8, ptr %0, i64 12
  store i32 %23, ptr %24, align 4, !tbaa !258
  %25 = getelementptr inbounds nuw i8, ptr %1, i64 32
  %26 = load i32, ptr %25, align 8, !tbaa !237
  %27 = tail call i32 asm "bswap $0", "=r,0,~{dirflag},~{fpsr},~{flags}"(i32 %26) #33, !srcloc !99
  %28 = getelementptr inbounds nuw i8, ptr %0, i64 16
  store i32 %27, ptr %28, align 4, !tbaa !32
  %29 = getelementptr inbounds nuw i8, ptr %1, i64 36
  %30 = load i32, ptr %29, align 4, !tbaa !238
  %31 = tail call i32 asm "bswap $0", "=r,0,~{dirflag},~{fpsr},~{flags}"(i32 %30) #33, !srcloc !99
  %32 = getelementptr inbounds nuw i8, ptr %0, i64 20
  store i32 %31, ptr %32, align 4, !tbaa !32
  %33 = getelementptr inbounds nuw i8, ptr %1, i64 52
  %34 = load i32, ptr %33, align 4, !tbaa !32
  %35 = tail call i32 asm "bswap $0", "=r,0,~{dirflag},~{fpsr},~{flags}"(i32 %34) #33, !srcloc !99
  %36 = getelementptr inbounds nuw i8, ptr %0, i64 24
  store i32 %35, ptr %36, align 4, !tbaa !32
  %37 = getelementptr inbounds nuw i8, ptr %1, i64 40
  %38 = load i32, ptr %37, align 8, !tbaa !239
  %39 = tail call i32 asm "bswap $0", "=r,0,~{dirflag},~{fpsr},~{flags}"(i32 %38) #33, !srcloc !99
  %40 = getelementptr inbounds nuw i8, ptr %0, i64 28
  store i32 %39, ptr %40, align 4, !tbaa !32
  %41 = getelementptr inbounds nuw i8, ptr %1, i64 44
  %42 = load i32, ptr %41, align 4, !tbaa !240
  %43 = tail call i32 asm "bswap $0", "=r,0,~{dirflag},~{fpsr},~{flags}"(i32 %42) #33, !srcloc !99
  %44 = getelementptr inbounds nuw i8, ptr %0, i64 32
  store i32 %43, ptr %44, align 4, !tbaa !32
  %45 = getelementptr inbounds nuw i8, ptr %1, i64 48
  %46 = load i32, ptr %45, align 8, !tbaa !53
  %47 = tail call i32 asm "bswap $0", "=r,0,~{dirflag},~{fpsr},~{flags}"(i32 %46) #33, !srcloc !99
  %48 = getelementptr inbounds nuw i8, ptr %0, i64 36
  store i32 %47, ptr %48, align 4, !tbaa !32
  %49 = getelementptr inbounds nuw i8, ptr %1, i64 72
  tail call void @llvm.memcpy.p0.p0.i64(ptr nonnull align 1 %7, ptr nonnull readonly align 1 %49, i64 %6, i1 false)
  %50 = getelementptr inbounds nuw i8, ptr %1, i64 56
  %51 = load i32, ptr %50, align 8, !tbaa !32
  %52 = getelementptr inbounds nuw i8, ptr %1, i64 64
  %53 = load i32, ptr %52, align 8, !tbaa !32
  %spec.select = tail call i32 @llvm.umin.i32(i32 %53, i32 4095)
  %54 = and i32 %51, 61440
  %55 = or disjoint i32 %spec.select, %54
  %56 = trunc nuw i32 %55 to i16
  %rev.i = tail call noundef i16 @llvm.bswap.i16(i16 %56)
  store i16 %rev.i, ptr %9, align 2, !tbaa !259
  %57 = and i32 %51, 16384
  %.not = icmp eq i32 %57, 0
  br i1 %.not, label %61, label %58

58:                                               ; preds = %git_bswap32.exit
  %sum.shift = lshr i32 %51, 24
  %59 = trunc nuw nsw i32 %sum.shift to i16
  %rev.i50 = and i16 %59, 96
  %60 = getelementptr inbounds nuw i8, ptr %9, i64 2
  store i16 %rev.i50, ptr %60, align 2, !tbaa !259
  br label %61

61:                                               ; preds = %58, %git_bswap32.exit
  ret void
}